target datalayout = "e-m:e-p270:32:32-p271:32:32-p272:64:64-i64:64-i128:128-f80:128-n8:16:32:64-S128"
target triple = "x86_64-pc-linux-gnu"

%struct.write_midx_context = type { ptr, i64, i64, ptr, ptr, ptr, i32, ptr, i64, ptr, ptr, i8, i32, i32, i32, i32, ptr, ptr }
%struct.pack_midx_entry = type { %struct.object_id, i32, i64, i64, i8 }
%struct.object_id = type { [32 x i8], i32 }

; Function Attrs: inlinehint nounwind uwtable
define internal i32 @default_swab32(i32 noundef %0) #4 {
  %2 = alloca i32, align 4
  store i32 %0, ptr %2, align 4, !tbaa !11
  %3 = load i32, ptr %2, align 4, !tbaa !11
  %4 = and i32 %3, -16777216
  %5 = lshr i32 %4, 24
  %6 = load i32, ptr %2, align 4, !tbaa !11
  %7 = and i32 %6, 16711680
  %8 = lshr i32 %7, 8
  %9 = or i32 %5, %8
  %10 = load i32, ptr %2, align 4, !tbaa !11
  %11 = and i32 %10, 65280
  %12 = shl i32 %11, 8
  %13 = or i32 %9, %12
  %14 = load i32, ptr %2, align 4, !tbaa !11
  %15 = and i32 %14, 255
  %16 = shl i32 %15, 24
  %17 = or i32 %13, %16
  ret i32 %17
}

; Function Attrs: inlinehint nounwind uwtable
define internal i32 @git_bswap32(i32 noundef %0) #4 {
  %2 = alloca i32, align 4
  %3 = alloca i32, align 4
  store i32 %0, ptr %2, align 4, !tbaa !11
  call void @llvm.lifetime.start.p0(i64 4, ptr %3) #11
  %4 = load i32, ptr %2, align 4, !tbaa !11
  %5 = call i1 @llvm.is.constant.i32(i32 %4)
  br i1 %5, label %6, label %9

6:                                                ; preds = %1
  %7 = load i32, ptr %2, align 4, !tbaa !11
  %8 = call i32 @default_swab32(i32 noundef %7)
  store i32 %8, ptr %3, align 4, !tbaa !11
  br label %12

9:                                                ; preds = %1
  %10 = load i32, ptr %2, align 4, !tbaa !11
  %11 = call i32 asm "bswap $0", "=r,0,~{dirflag},~{fpsr},~{flags}"(i32 %10) #15, !srcloc !206
  store i32 %11, ptr %3, align 4, !tbaa !11
  br label %12

12:                                               ; preds = %9, %6
  %13 = load i32, ptr %3, align 4, !tbaa !11
  call void @llvm.lifetime.end.p0(i64 4, ptr %3) #11
  ret i32 %13
}

; Function Attrs: inlinehint nounwind uwtable
define internal void @hashwrite_be32(ptr noundef %0, i32 noundef %1) #4 {
  %3 = alloca ptr, align 8
  %4 = alloca i32, align 4
  store ptr %0, ptr %3, align 8, !tbaa !15
  store i32 %1, ptr %4, align 4, !tbaa !11
  %5 = load i32, ptr %4, align 4, !tbaa !11
  %6 = call i32 @git_bswap32(i32 noundef %5)
  store i32 %6, ptr %4, align 4, !tbaa !11
  %7 = load ptr, ptr %3, align 8, !tbaa !15
  call void @hashwrite(ptr noundef %7, ptr noundef %4, i32 noundef 4)
  ret void
}

; Function Attrs: nounwind uwtable
define internal i32 @write_midx_oid_fanout(ptr noundef %0, ptr noundef %1) #0 {
  %3 = alloca ptr, align 8
  %4 = alloca ptr, align 8
  %5 = alloca ptr, align 8
  %6 = alloca ptr, align 8
  %7 = alloca ptr, align 8
  %8 = alloca i32, align 4
  %9 = alloca i32, align 4
  %10 = alloca ptr, align 8
  store ptr %0, ptr %3, align 8, !tbaa !15
  store ptr %1, ptr %4, align 8, !tbaa !137
  call void @llvm.lifetime.start.p0(i64 8, ptr %5) #11
  %11 = load ptr, ptr %4, align 8, !tbaa !137
  store ptr %11, ptr %5, align 8, !tbaa !133
  call void @llvm.lifetime.start.p0(i64 8, ptr %6) #11
  %12 = load ptr, ptr %5, align 8, !tbaa !133
  %13 = getelementptr inbounds nuw %struct.write_midx_context, ptr %12, i32 0, i32 7
  %14 = load ptr, ptr %13, align 8, !tbaa !75
  store ptr %14, ptr %6, align 8, !tbaa !152
  call void @llvm.lifetime.start.p0(i64 8, ptr %7) #11
  %15 = load ptr, ptr %5, align 8, !tbaa !133
  %16 = getelementptr inbounds nuw %struct.write_midx_context, ptr %15, i32 0, i32 7
  %17 = load ptr, ptr %16, align 8, !tbaa !75
  %18 = load ptr, ptr %5, align 8, !tbaa !133
  %19 = getelementptr inbounds nuw %struct.write_midx_context, ptr %18, i32 0, i32 8
  %20 = load i64, ptr %19, align 8, !tbaa !74
  %21 = getelementptr inbounds nuw %struct.pack_midx_entry, ptr %17, i64 %20
  store ptr %21, ptr %7, align 8, !tbaa !152
  call void @llvm.lifetime.start.p0(i64 4, ptr %8) #11
  store i32 0, ptr %8, align 4, !tbaa !11
  call void @llvm.lifetime.start.p0(i64 4, ptr %9) #11
  store i32 0, ptr %9, align 4, !tbaa !11
  br label %22

22:                                               ; preds = %51, %2
  %23 = load i32, ptr %9, align 4, !tbaa !11
  %24 = icmp ult i32 %23, 256
  br i1 %24, label %25, label %54

25:                                               ; preds = %22
  call void @llvm.lifetime.start.p0(i64 8, ptr %10) #11
  %26 = load ptr, ptr %6, align 8, !tbaa !152
  store ptr %26, ptr %10, align 8, !tbaa !152
  br label %27

27:                                               ; preds = %42, %25
  %28 = load ptr, ptr %10, align 8, !tbaa !152
  %29 = load ptr, ptr %7, align 8, !tbaa !152
  %30 = icmp ult ptr %28, %29
  br i1 %30, label %31, label %40

31:                                               ; preds = %27
  %32 = load ptr, ptr %10, align 8, !tbaa !152
  %33 = getelementptr inbounds nuw %struct.pack_midx_entry, ptr %32, i32 0, i32 0
  %34 = getelementptr inbounds nuw %struct.object_id, ptr %33, i32 0, i32 0
  %35 = getelementptr inbounds [32 x i8], ptr %34, i64 0, i64 0
  %36 = load i8, ptr %35, align 8, !tbaa !114
  %37 = zext i8 %36 to i32
  %38 = load i32, ptr %9, align 4, !tbaa !11
  %39 = icmp eq i32 %37, %38
  br label %40

40:                                               ; preds = %31, %27
  %41 = phi i1 [ false, %27 ], [ %39, %31 ]
  br i1 %41, label %42, label %47

42:                                               ; preds = %40
  %43 = load i32, ptr %8, align 4, !tbaa !11
  %44 = add i32 %43, 1
  store i32 %44, ptr %8, align 4, !tbaa !11
  %45 = load ptr, ptr %10, align 8, !tbaa !152
  %46 = getelementptr inbounds nuw %struct.pack_midx_entry, ptr %45, i32 1
  store ptr %46, ptr %10, align 8, !tbaa !152
  br label %27, !llvm.loop !153

47:                                               ; preds = %40
  %48 = load ptr, ptr %3, align 8, !tbaa !15
  %49 = load i32, ptr %8, align 4, !tbaa !11
  call void @hashwrite_be32(ptr noundef %48, i32 noundef %49)
  %50 = load ptr, ptr %10, align 8, !tbaa !152
  store ptr %50, ptr %6, align 8, !tbaa !152
  call void @llvm.lifetime.end.p0(i64 8, ptr %10) #11
  br label %51

51:                                               ; preds = %47
  %52 = load i32, ptr %9, align 4, !tbaa !11
  %53 = add i32 %52, 1
  store i32 %53, ptr %9, align 4, !tbaa !11
  br label %22, !llvm.loop !154

54:                                               ; preds = %22
  call void @llvm.lifetime.end.p0(i64 4, ptr %9) #11
  call void @llvm.lifetime.end.p0(i64 4, ptr %8) #11
  call void @llvm.lifetime.end.p0(i64 8, ptr %7) #11
  call void @llvm.lifetime.end.p0(i64 8, ptr %6) #11
  call void @llvm.lifetime.end.p0(i64 8, ptr %5) #11
  ret i32 0
}