; Function Attrs: nounwind uwtable
define internal noundef i32 @write_midx_oid_fanout(ptr noundef %0, ptr noundef readonly captures(none) %1) #0 {
  %3 = alloca i32, align 4
  %4 = getelementptr inbounds nuw i8, ptr %1, i64 56
  %5 = load ptr, ptr %4, align 8, !tbaa !78
  %6 = getelementptr inbounds nuw i8, ptr %1, i64 64
  %7 = load i64, ptr %6, align 8, !tbaa !79
  %8 = getelementptr inbounds nuw %struct.pack_midx_entry, ptr %5, i64 %7
  br label %.preheader

.preheader:                                       ; preds = %2, %.critedge
  %.01526 = phi i32 [ 0, %2 ], [ %18, %.critedge ]
  %.01625 = phi i32 [ 0, %2 ], [ %.1.lcssa, %.critedge ]
  %.01724 = phi ptr [ %5, %2 ], [ %.0.lcssa, %.critedge ]
  %9 = icmp ult ptr %.01724, %8
  br i1 %9, label %.lr.ph, label %.critedge

.lr.ph:                                           ; preds = %.preheader, %13
  %.019 = phi ptr [ %15, %13 ], [ %.01724, %.preheader ]
  %.118 = phi i32 [ %14, %13 ], [ %.01625, %.preheader ]
  %10 = load i8, ptr %.019, align 8, !tbaa !116
  %11 = zext i8 %10 to i32
  %12 = icmp eq i32 %.01526, %11
  br i1 %12, label %13, label %.critedge

13:                                               ; preds = %.lr.ph
  %14 = add i32 %.118, 1
  %15 = getelementptr inbounds nuw i8, ptr %.019, i64 64
  %16 = icmp ult ptr %15, %8
  br i1 %16, label %.lr.ph, label %.critedge, !llvm.loop !208

.critedge:                                        ; preds = %.lr.ph, %13, %.preheader
  %.1.lcssa = phi i32 [ %.01625, %.preheader ], [ %14, %13 ], [ %.118, %.lr.ph ]
  %.0.lcssa = phi ptr [ %.01724, %.preheader ], [ %15, %13 ], [ %.019, %.lr.ph ]
  call void @llvm.lifetime.start.p0(i64 4, ptr nonnull %3)
  %17 = call i32 asm "bswap $0", "=r,0,~{dirflag},~{fpsr},~{flags}"(i32 %.1.lcssa) #22, !srcloc !117
  store i32 %17, ptr %3, align 4, !tbaa !40
  call void @hashwrite(ptr noundef %0, ptr noundef nonnull %3, i32 noundef 4) #19
  call void @llvm.lifetime.end.p0(i64 4, ptr nonnull %3)
  %18 = add nuw nsw i32 %.01526, 1
  %exitcond.not = icmp eq i32 %18, 256
  br i1 %exitcond.not, label %19, label %.preheader, !llvm.loop !209

19:                                               ; preds = %.critedge
  ret i32 0
}